target datalayout = "e-m:e-p270:32:32-p271:32:32-p272:64:64-i64:64-i128:128-f80:128-n8:16:32:64-S128"
target triple = "x86_64-pc-linux-gnu"

@.str.6 = private unnamed_addr constant [14 x i8] c"curl_response\00", align 1
@.str.7 = private unnamed_addr constant [31 x i8] c"No remote file name, uses \22%s\22\00", align 1

; Function Attrs: nounwind uwtable
define dso_local i32 @urlerr_cvt(i32 noundef %0) #0 {
  %2 = alloca i32, align 4
  %3 = alloca i32, align 4
  store i32 %0, ptr %3, align 4, !tbaa !33
  %4 = load i32, ptr %3, align 4, !tbaa !33
  %5 = icmp eq i32 %4, 7
  br i1 %5, label %6, label %7

6:                                                ; preds = %1
  store i32 27, ptr %2, align 4
  br label %23

7:                                                ; preds = %1
  %8 = load i32, ptr %3, align 4, !tbaa !33
  %9 = icmp eq i32 %8, 5
  br i1 %9, label %10, label %11

10:                                               ; preds = %7
  store i32 1, ptr %2, align 4
  br label %23

11:                                               ; preds = %7
  %12 = load i32, ptr %3, align 4, !tbaa !33
  %13 = icmp eq i32 %12, 30
  br i1 %13, label %14, label %15

14:                                               ; preds = %11
  store i32 4, ptr %2, align 4
  br label %23

15:                                               ; preds = %11
  %16 = load i32, ptr %3, align 4, !tbaa !33
  %17 = icmp eq i32 %16, 1
  br i1 %17, label %18, label %19

18:                                               ; preds = %15
  store i32 43, ptr %2, align 4
  br label %23

19:                                               ; preds = %15
  br label %20

20:                                               ; preds = %19
  br label %21

21:                                               ; preds = %20
  br label %22

22:                                               ; preds = %21
  store i32 3, ptr %2, align 4
  br label %23

23:                                               ; preds = %22, %18, %14, %10, %6
  %24 = load i32, ptr %2, align 4
  ret i32 %24
}

; Function Attrs: nounwind uwtable
define dso_local i32 @get_url_file_name(ptr noundef %0, ptr noundef %1, ptr noundef %2) #0 {
  %4 = alloca i32, align 4
  %5 = alloca ptr, align 8
  %6 = alloca ptr, align 8
  %7 = alloca ptr, align 8
  %8 = alloca ptr, align 8
  %9 = alloca ptr, align 8
  %10 = alloca i32, align 4
  %11 = alloca i32, align 4
  %12 = alloca i32, align 4
  %13 = alloca ptr, align 8
  %14 = alloca ptr, align 8
  store ptr %0, ptr %5, align 8, !tbaa !40
  store ptr %1, ptr %6, align 8, !tbaa !35
  store ptr %2, ptr %7, align 8, !tbaa !32
  call void @llvm.lifetime.start.p0(i64 8, ptr %8) #5
  %15 = call ptr @curl_url()
  store ptr %15, ptr %8, align 8, !tbaa !37
  call void @llvm.lifetime.start.p0(i64 8, ptr %9) #5
  store ptr null, ptr %9, align 8, !tbaa !32
  call void @llvm.lifetime.start.p0(i64 4, ptr %10) #5
  %16 = load ptr, ptr %8, align 8, !tbaa !37
  %17 = icmp ne ptr %16, null
  br i1 %17, label %19, label %18

18:                                               ; preds = %3
  store i32 27, ptr %4, align 4
  store i32 1, ptr %11, align 4
  br label %95

19:                                               ; preds = %3
  %20 = load ptr, ptr %6, align 8, !tbaa !35
  store ptr null, ptr %20, align 8, !tbaa !32
  %21 = load ptr, ptr %8, align 8, !tbaa !37
  %22 = load ptr, ptr %7, align 8, !tbaa !32
  %23 = call i32 @curl_url_set(ptr noundef %21, i32 noundef 0, ptr noundef %22, i32 noundef 512)
  store i32 %23, ptr %10, align 4, !tbaa !33
  %24 = load i32, ptr %10, align 4, !tbaa !33
  %25 = icmp ne i32 %24, 0
  br i1 %25, label %91, label %26

26:                                               ; preds = %19
  %27 = load ptr, ptr %8, align 8, !tbaa !37
  %28 = call i32 @curl_url_get(ptr noundef %27, i32 noundef 7, ptr noundef %9, i32 noundef 0)
  store i32 %28, ptr %10, align 4, !tbaa !33
  %29 = load ptr, ptr %8, align 8, !tbaa !37
  call void @curl_url_cleanup(ptr noundef %29)
  store ptr null, ptr %8, align 8, !tbaa !37
  %30 = load i32, ptr %10, align 4, !tbaa !33
  %31 = icmp ne i32 %30, 0
  br i1 %31, label %90, label %32

32:                                               ; preds = %26
  call void @llvm.lifetime.start.p0(i64 4, ptr %12) #5
  call void @llvm.lifetime.start.p0(i64 8, ptr %13) #5
  store ptr null, ptr %13, align 8, !tbaa !32
  call void @llvm.lifetime.start.p0(i64 8, ptr %14) #5
  store ptr null, ptr %14, align 8, !tbaa !32
  store i32 0, ptr %12, align 4, !tbaa !33
  br label %33

33:                                               ; preds = %67, %32
  %34 = load i32, ptr %12, align 4, !tbaa !33
  %35 = icmp slt i32 %34, 2
  br i1 %35, label %36, label %70

36:                                               ; preds = %33
  %37 = load ptr, ptr %9, align 8, !tbaa !32
  %38 = call ptr @strrchr(ptr noundef %37, i32 noundef 47) #6
  store ptr %38, ptr %13, align 8, !tbaa !32
  %39 = load ptr, ptr %13, align 8, !tbaa !32
  %40 = icmp ne ptr %39, null
  br i1 %40, label %41, label %44

41:                                               ; preds = %36
  %42 = load ptr, ptr %13, align 8, !tbaa !32
  %43 = getelementptr inbounds i8, ptr %42, i64 1
  br label %46

44:                                               ; preds = %36
  %45 = load ptr, ptr %9, align 8, !tbaa !32
  br label %46

46:                                               ; preds = %44, %41
  %47 = phi ptr [ %43, %41 ], [ %45, %44 ]
  %48 = call ptr @strrchr(ptr noundef %47, i32 noundef 92) #6
  store ptr %48, ptr %14, align 8, !tbaa !32
  %49 = load ptr, ptr %14, align 8, !tbaa !32
  %50 = icmp ne ptr %49, null
  br i1 %50, label %51, label %53

51:                                               ; preds = %46
  %52 = load ptr, ptr %14, align 8, !tbaa !32
  store ptr %52, ptr %13, align 8, !tbaa !32
  br label %53

53:                                               ; preds = %51, %46
  %54 = load ptr, ptr %13, align 8, !tbaa !32
  %55 = icmp ne ptr %54, null
  br i1 %55, label %56, label %66

56:                                               ; preds = %53
  %57 = load ptr, ptr %13, align 8, !tbaa !32
  %58 = getelementptr inbounds i8, ptr %57, i64 1
  %59 = load i8, ptr %58, align 1, !tbaa !39
  %60 = icmp ne i8 %59, 0
  br i1 %60, label %66, label %61

61:                                               ; preds = %56
  %62 = load i32, ptr %12, align 4, !tbaa !33
  %63 = icmp ne i32 %62, 0
  br i1 %63, label %66, label %64

64:                                               ; preds = %61
  %65 = load ptr, ptr %13, align 8, !tbaa !32
  store i8 0, ptr %65, align 1, !tbaa !39
  br label %66

66:                                               ; preds = %64, %61, %56, %53
  br label %67

67:                                               ; preds = %66
  %68 = load i32, ptr %12, align 4, !tbaa !33
  %69 = add nsw i32 %68, 1
  store i32 %69, ptr %12, align 4, !tbaa !33
  br label %33, !llvm.loop !41

70:                                               ; preds = %33
  %71 = load ptr, ptr %13, align 8, !tbaa !32
  %72 = icmp ne ptr %71, null
  br i1 %72, label %73, label %76

73:                                               ; preds = %70
  %74 = load ptr, ptr %13, align 8, !tbaa !32
  %75 = getelementptr inbounds nuw i8, ptr %74, i32 1
  store ptr %75, ptr %13, align 8, !tbaa !32
  br label %79

76:                                               ; preds = %70
  store ptr @.str.6, ptr %13, align 8, !tbaa !32
  %77 = load ptr, ptr %5, align 8, !tbaa !40
  %78 = load ptr, ptr %13, align 8, !tbaa !32
  call void (ptr, ptr, ...) @warnf(ptr noundef %77, ptr noundef @.str.7, ptr noundef %78)
  br label %79

79:                                               ; preds = %76, %73
  %80 = load ptr, ptr %13, align 8, !tbaa !32
  %81 = call noalias ptr @strdup(ptr noundef %80) #5
  %82 = load ptr, ptr %6, align 8, !tbaa !35
  store ptr %81, ptr %82, align 8, !tbaa !32
  %83 = load ptr, ptr %9, align 8, !tbaa !32
  call void @curl_free(ptr noundef %83)
  %84 = load ptr, ptr %6, align 8, !tbaa !35
  %85 = load ptr, ptr %84, align 8, !tbaa !32
  %86 = icmp ne ptr %85, null
  br i1 %86, label %88, label %87

87:                                               ; preds = %79
  store i32 27, ptr %4, align 4
  store i32 1, ptr %11, align 4
  br label %89

88:                                               ; preds = %79
  store i32 0, ptr %4, align 4
  store i32 1, ptr %11, align 4
  br label %89

89:                                               ; preds = %88, %87
  call void @llvm.lifetime.end.p0(i64 8, ptr %14) #5
  call void @llvm.lifetime.end.p0(i64 8, ptr %13) #5
  call void @llvm.lifetime.end.p0(i64 4, ptr %12) #5
  br label %95

90:                                               ; preds = %26
  br label %91

91:                                               ; preds = %90, %19
  %92 = load ptr, ptr %8, align 8, !tbaa !37
  call void @curl_url_cleanup(ptr noundef %92)
  %93 = load i32, ptr %10, align 4, !tbaa !33
  %94 = call i32 @urlerr_cvt(i32 noundef %93)
  store i32 %94, ptr %4, align 4
  store i32 1, ptr %11, align 4
  br label %95

95:                                               ; preds = %91, %89, %18
  call void @llvm.lifetime.end.p0(i64 4, ptr %10) #5
  call void @llvm.lifetime.end.p0(i64 8, ptr %9) #5
  call void @llvm.lifetime.end.p0(i64 8, ptr %8) #5
  %96 = load i32, ptr %4, align 4
  ret i32 %96
}