; Function Attrs: nounwind uwtable
define dso_local range(i32 0, 44) i32 @get_url_file_name(ptr noundef %0, ptr noundef captures(none) %1, ptr noundef %2) local_unnamed_addr #0 {
  %4 = alloca ptr, align 8
  %5 = tail call ptr @curl_url() #8
  call void @llvm.lifetime.start.p0(i64 8, ptr nonnull %4) #8
  store ptr null, ptr %4, align 8, !tbaa !30
  %.not = icmp eq ptr %5, null
  br i1 %.not, label %urlerr_cvt.exit, label %6

6:                                                ; preds = %3
  store ptr null, ptr %1, align 8, !tbaa !30
  %7 = tail call i32 @curl_url_set(ptr noundef nonnull %5, i32 noundef 0, ptr noundef %2, i32 noundef 512) #8
  %.not37 = icmp eq i32 %7, 0
  br i1 %.not37, label %8, label %29

8:                                                ; preds = %6
  %9 = call i32 @curl_url_get(ptr noundef nonnull %5, i32 noundef 7, ptr noundef nonnull %4, i32 noundef 0) #8
  call void @curl_url_cleanup(ptr noundef nonnull %5) #8
  %.not38 = icmp eq i32 %9, 0
  br i1 %.not38, label %.preheader, label %29

.preheader:                                       ; preds = %8, %.preheader.backedge
  %10 = phi i1 [ true, %.preheader.backedge ], [ false, %8 ]
  %11 = phi i1 [ false, %.preheader.backedge ], [ true, %8 ]
  %12 = load ptr, ptr %4, align 8, !tbaa !30
  %13 = call ptr @strrchr(ptr noundef nonnull dereferenceable(1) %12, i32 noundef 47) #9
  %.not41 = icmp eq ptr %13, null
  %14 = getelementptr inbounds nuw i8, ptr %13, i64 1
  %15 = select i1 %.not41, ptr %12, ptr %14
  %16 = call ptr @strrchr(ptr noundef nonnull dereferenceable(1) %15, i32 noundef 92) #9
  %.not42 = icmp eq ptr %16, null
  %spec.select = select i1 %.not42, ptr %13, ptr %16
  %.not43 = icmp eq ptr %spec.select, null
  br i1 %.not43, label %.thread, label %17

17:                                               ; preds = %.preheader
  %18 = getelementptr inbounds nuw i8, ptr %spec.select, i64 1
  %19 = load i8, ptr %18, align 1, !tbaa !31
  %20 = icmp ne i8 %19, 0
  %or.cond = or i1 %10, %20
  br i1 %or.cond, label %22, label %21

21:                                               ; preds = %17
  store i8 0, ptr %spec.select, align 1, !tbaa !31
  br label %22

22:                                               ; preds = %17, %21
  br i1 %11, label %.preheader.backedge, label %23

.preheader.backedge:                              ; preds = %22, %.thread
  br label %.preheader, !llvm.loop !32

.thread:                                          ; preds = %.preheader
  br i1 %11, label %.preheader.backedge, label %.thread45

23:                                               ; preds = %22
  %24 = getelementptr inbounds nuw i8, ptr %spec.select, i64 1
  br label %25

.thread45:                                        ; preds = %.thread
  call void (ptr, ptr, ...) @warnf(ptr noundef %0, ptr noundef nonnull @.str.7, ptr noundef nonnull @.str.6) #8
  br label %25

25:                                               ; preds = %.thread45, %23
  %.2 = phi ptr [ %24, %23 ], [ @.str.6, %.thread45 ]
  %26 = call noalias ptr @strdup(ptr noundef nonnull %.2) #8
  store ptr %26, ptr %1, align 8, !tbaa !30
  %27 = load ptr, ptr %4, align 8, !tbaa !30
  call void @curl_free(ptr noundef %27) #8
  %28 = load ptr, ptr %1, align 8, !tbaa !30
  %.not40 = icmp eq ptr %28, null
  %. = select i1 %.not40, i32 27, i32 0
  br label %urlerr_cvt.exit

29:                                               ; preds = %8, %6
  %.030 = phi ptr [ %5, %6 ], [ null, %8 ]
  %.029 = phi i32 [ %7, %6 ], [ %9, %8 ]
  call void @curl_url_cleanup(ptr noundef %.030) #8
  switch i32 %.029, label %33 [
    i32 7, label %urlerr_cvt.exit
    i32 5, label %30
    i32 30, label %31
    i32 1, label %32
  ]

30:                                               ; preds = %29
  br label %urlerr_cvt.exit

31:                                               ; preds = %29
  br label %urlerr_cvt.exit

32:                                               ; preds = %29
  br label %urlerr_cvt.exit

33:                                               ; preds = %29
  br label %urlerr_cvt.exit

urlerr_cvt.exit:                                  ; preds = %33, %32, %31, %30, %29, %3, %25
  %.031 = phi i32 [ %., %25 ], [ 27, %3 ], [ 1, %30 ], [ 4, %31 ], [ 43, %32 ], [ 3, %33 ], [ 27, %29 ]
  call void @llvm.lifetime.end.p0(i64 8, ptr nonnull %4) #8
  ret i32 %.031
}